target datalayout = "e-m:e-p270:32:32-p271:32:32-p272:64:64-i64:64-i128:128-f80:128-n8:16:32:64-S128"
target triple = "x86_64-pc-linux-gnu"

; Function Attrs: nounwind uwtable
define i32 @fdt_stringlist_contains(ptr noundef %0, i32 noundef %1, ptr noundef %2) #0 {
  %4 = alloca i32, align 4
  %5 = alloca ptr, align 8
  %6 = alloca i32, align 4
  %7 = alloca ptr, align 8
  %8 = alloca i32, align 4
  %9 = alloca ptr, align 8
  %10 = alloca i32, align 4
  store ptr %0, ptr %5, align 8, !tbaa !13
  store i32 %1, ptr %6, align 4, !tbaa !7
  store ptr %2, ptr %7, align 8, !tbaa !13
  call void @llvm.lifetime.start.p0(i64 4, ptr %8) #6
  %11 = load ptr, ptr %7, align 8, !tbaa !13
  %12 = call i64 @strlen(ptr noundef %11) #7
  %13 = trunc i64 %12 to i32
  store i32 %13, ptr %8, align 4, !tbaa !7
  call void @llvm.lifetime.start.p0(i64 8, ptr %9) #6
  br label %14

14:                                               ; preds = %35, %3
  %15 = load i32, ptr %6, align 4, !tbaa !7
  %16 = load i32, ptr %8, align 4, !tbaa !7
  %17 = icmp sge i32 %15, %16
  br i1 %17, label %18, label %48

18:                                               ; preds = %14
  %19 = load ptr, ptr %7, align 8, !tbaa !13
  %20 = load ptr, ptr %5, align 8, !tbaa !13
  %21 = load i32, ptr %8, align 4, !tbaa !7
  %22 = add nsw i32 %21, 1
  %23 = sext i32 %22 to i64
  %24 = call i32 @memcmp(ptr noundef %19, ptr noundef %20, i64 noundef %23) #7
  %25 = icmp eq i32 %24, 0
  br i1 %25, label %26, label %27

26:                                               ; preds = %18
  store i32 1, ptr %4, align 4
  store i32 1, ptr %10, align 4
  br label %49

27:                                               ; preds = %18
  %28 = load ptr, ptr %5, align 8, !tbaa !13
  %29 = load i32, ptr %6, align 4, !tbaa !7
  %30 = sext i32 %29 to i64
  %31 = call ptr @memchr(ptr noundef %28, i32 noundef 0, i64 noundef %30) #7
  store ptr %31, ptr %9, align 8, !tbaa !13
  %32 = load ptr, ptr %9, align 8, !tbaa !13
  %33 = icmp ne ptr %32, null
  br i1 %33, label %35, label %34

34:                                               ; preds = %27
  store i32 0, ptr %4, align 4
  store i32 1, ptr %10, align 4
  br label %49

35:                                               ; preds = %27
  %36 = load ptr, ptr %9, align 8, !tbaa !13
  %37 = load ptr, ptr %5, align 8, !tbaa !13
  %38 = ptrtoint ptr %36 to i64
  %39 = ptrtoint ptr %37 to i64
  %40 = sub i64 %38, %39
  %41 = add nsw i64 %40, 1
  %42 = load i32, ptr %6, align 4, !tbaa !7
  %43 = sext i32 %42 to i64
  %44 = sub nsw i64 %43, %41
  %45 = trunc i64 %44 to i32
  store i32 %45, ptr %6, align 4, !tbaa !7
  %46 = load ptr, ptr %9, align 8, !tbaa !13
  %47 = getelementptr inbounds i8, ptr %46, i64 1
  store ptr %47, ptr %5, align 8, !tbaa !13
  br label %14, !llvm.loop !39

48:                                               ; preds = %14
  store i32 0, ptr %4, align 4
  store i32 1, ptr %10, align 4
  br label %49

49:                                               ; preds = %48, %34, %26
  call void @llvm.lifetime.end.p0(i64 8, ptr %9) #6
  call void @llvm.lifetime.end.p0(i64 4, ptr %8) #6
  %50 = load i32, ptr %4, align 4
  ret i32 %50
}