; Function Attrs: nofree nounwind memory(read, inaccessiblemem: none) uwtable
define range(i32 0, 2) i32 @fdt_stringlist_contains(ptr noundef %0, i32 noundef %1, ptr noundef readonly captures(none) %2) local_unnamed_addr #6 {
  %4 = tail call i64 @strlen(ptr noundef nonnull dereferenceable(1) %2) #10
  %5 = trunc i64 %4 to i32
  %6 = shl i64 %4, 32
  %sext = add i64 %6, 4294967296
  %7 = ashr exact i64 %sext, 32
  %.not18 = icmp slt i32 %1, %5
  br i1 %.not18, label %._crit_edge, label %.lr.ph

.lr.ph:                                           ; preds = %3, %12
  %.01320 = phi ptr [ %18, %12 ], [ %0, %3 ]
  %.01419 = phi i32 [ %17, %12 ], [ %1, %3 ]
  %bcmp = tail call i32 @bcmp(ptr nonnull %2, ptr %.01320, i64 %7)
  %8 = icmp eq i32 %bcmp, 0
  br i1 %8, label %._crit_edge, label %9

9:                                                ; preds = %.lr.ph
  %10 = sext i32 %.01419 to i64
  %11 = tail call ptr @memchr(ptr noundef %.01320, i32 noundef 0, i64 noundef %10) #10
  %.not17 = icmp eq ptr %11, null
  br i1 %.not17, label %._crit_edge, label %12

12:                                               ; preds = %9
  %13 = ptrtoint ptr %11 to i64
  %14 = ptrtoint ptr %.01320 to i64
  %15 = xor i64 %13, -1
  %.neg = add i64 %15, %14
  %16 = trunc i64 %.neg to i32
  %17 = add i32 %.01419, %16
  %18 = getelementptr inbounds nuw i8, ptr %11, i64 1
  %.not = icmp slt i32 %17, %5
  br i1 %.not, label %._crit_edge, label %.lr.ph, !llvm.loop !26

._crit_edge:                                      ; preds = %.lr.ph, %9, %12, %3
  %.0 = phi i32 [ 0, %3 ], [ 0, %12 ], [ 0, %9 ], [ 1, %.lr.ph ]
  ret i32 %.0
}